; Function Attrs: nofree norecurse nosync nounwind memory(readwrite, inaccessiblemem: none) uwtable
define void @png_warning_parameter_signed(ptr noundef writeonly captures(address) %0, i32 noundef %1, i32 noundef %2, i32 noundef %3) local_unnamed_addr #9 {
  %5 = alloca [24 x i8], align 16
  call void @llvm.lifetime.start.p0(i64 24, ptr nonnull %5) #21
  call void @llvm.memset.p0.i64(ptr noundef nonnull align 16 dereferenceable(24) %5, i8 0, i64 24, i1 false)
  %6 = icmp slt i32 %3, 0
  %7 = tail call i32 @llvm.abs.i32(i32 %3, i1 false)
  %spec.select = zext i32 %7 to i64
  %8 = getelementptr inbounds nuw i8, ptr %5, i64 24
  %9 = call ptr @png_format_number(ptr noundef nonnull %5, ptr noundef nonnull %8, i32 noundef %2, i64 noundef %spec.select)
  %10 = icmp ugt ptr %9, %5
  %or.cond = select i1 %6, i1 %10, i1 false
  br i1 %or.cond, label %11, label %13

11:                                               ; preds = %4
  %12 = getelementptr inbounds i8, ptr %9, i64 -1
  store i8 45, ptr %12, align 1, !tbaa !24
  br label %13

13:                                               ; preds = %11, %4
  %.0 = phi ptr [ %12, %11 ], [ %9, %4 ]
  %14 = add i32 %1, -1
  %or.cond.i = icmp ult i32 %14, 8
  br i1 %or.cond.i, label %15, label %png_warning_parameter.exit

15:                                               ; preds = %13
  %16 = zext nneg i32 %1 to i64
  %17 = getelementptr [32 x i8], ptr %0, i64 %16
  %18 = getelementptr i8, ptr %17, i64 -32
  %.not.i.not.i = icmp eq ptr %18, null
  br i1 %.not.i.not.i, label %png_warning_parameter.exit, label %19

19:                                               ; preds = %15
  %20 = load i8, ptr %.0, align 1, !tbaa !24
  %.not.i = icmp eq i8 %20, 0
  br i1 %.not.i, label %.loopexit.i.i, label %.lr.ph.i.i

.lr.ph.i.i:                                       ; preds = %19, %.lr.ph.i.i
  %21 = phi i8 [ %25, %.lr.ph.i.i ], [ %20, %19 ]
  %.020.i.i = phi ptr [ %22, %.lr.ph.i.i ], [ %.0, %19 ]
  %.219.i.i = phi i64 [ %23, %.lr.ph.i.i ], [ 0, %19 ]
  %22 = getelementptr inbounds nuw i8, ptr %.020.i.i, i64 1
  %23 = add nuw nsw i64 %.219.i.i, 1
  %24 = getelementptr inbounds nuw i8, ptr %18, i64 %.219.i.i
  store i8 %21, ptr %24, align 1, !tbaa !24
  %25 = load i8, ptr %22, align 1, !tbaa !24
  %26 = icmp ne i8 %25, 0
  %27 = icmp samesign ult i64 %.219.i.i, 30
  %28 = select i1 %26, i1 %27, i1 false
  br i1 %28, label %.lr.ph.i.i, label %.loopexit.i.i, !llvm.loop !25

.loopexit.i.i:                                    ; preds = %.lr.ph.i.i, %19
  %.1.i.i = phi i64 [ 0, %19 ], [ %23, %.lr.ph.i.i ]
  %29 = getelementptr inbounds nuw i8, ptr %18, i64 %.1.i.i
  store i8 0, ptr %29, align 1, !tbaa !24
  br label %png_warning_parameter.exit

png_warning_parameter.exit:                       ; preds = %13, %15, %.loopexit.i.i
  call void @llvm.lifetime.end.p0(i64 24, ptr nonnull %5) #21
  ret void
}